target datalayout = "e-m:e-p270:32:32-p271:32:32-p272:64:64-i64:64-i128:128-f80:128-n8:16:32:64-S128"
target triple = "x86_64-pc-linux-gnu"

%struct.FontManagerNativeIDs = type { ptr, ptr, ptr, ptr, ptr, ptr, ptr, ptr, ptr, ptr, ptr, ptr, ptr, ptr, ptr, ptr, ptr, ptr, ptr, ptr, ptr, ptr, ptr, ptr, ptr, ptr, ptr, ptr, ptr, ptr, ptr, ptr, ptr, ptr, ptr, ptr, ptr }
%struct.JNINativeInterface_ = type { ptr, ptr, ptr, ptr, ptr, ptr, ptr, ptr, ptr, ptr, ptr, ptr, ptr, ptr, ptr, ptr, ptr, ptr, ptr, ptr, ptr, ptr, ptr, ptr, ptr, ptr, ptr, ptr, ptr, ptr, ptr, ptr, ptr, ptr, ptr, ptr, ptr, ptr, ptr, ptr, ptr, ptr, ptr, ptr, ptr, ptr, ptr, ptr, ptr, ptr, ptr, ptr, ptr, ptr, ptr, ptr, ptr, ptr, ptr, ptr, ptr, ptr, ptr, ptr, ptr, ptr, ptr, ptr, ptr, ptr, ptr, ptr, ptr, ptr, ptr, ptr, ptr, ptr, ptr, ptr, ptr, ptr, ptr, ptr, ptr, ptr, ptr, ptr, ptr, ptr, ptr, ptr, ptr, ptr, ptr, ptr, ptr, ptr, ptr, ptr, ptr, ptr, ptr, ptr, ptr, ptr, ptr, ptr, ptr, ptr, ptr, ptr, ptr, ptr, ptr, ptr, ptr, ptr, ptr, ptr, ptr, ptr, ptr, ptr, ptr, ptr, ptr, ptr, ptr, ptr, ptr, ptr, ptr, ptr, ptr, ptr, ptr, ptr, ptr, ptr, ptr, ptr, ptr, ptr, ptr, ptr, ptr, ptr, ptr, ptr, ptr, ptr, ptr, ptr, ptr, ptr, ptr, ptr, ptr, ptr, ptr, ptr, ptr, ptr, ptr, ptr, ptr, ptr, ptr, ptr, ptr, ptr, ptr, ptr, ptr, ptr, ptr, ptr, ptr, ptr, ptr, ptr, ptr, ptr, ptr, ptr, ptr, ptr, ptr, ptr, ptr, ptr, ptr, ptr, ptr, ptr, ptr, ptr, ptr, ptr, ptr, ptr, ptr, ptr, ptr, ptr, ptr, ptr, ptr, ptr, ptr, ptr, ptr, ptr, ptr, ptr, ptr, ptr, ptr, ptr, ptr, ptr, ptr, ptr, ptr, ptr, ptr, ptr, ptr, ptr, ptr, ptr, ptr, ptr, ptr }
%struct.FTScalerInfo = type { ptr, ptr, ptr, ptr, ptr, ptr, ptr, i32, i32, i32 }
%struct.FTScalerContext = type { %struct.FT_Matrix_, i8, i32, i32, i8, i8, i32, i32, i32 }
%struct.FT_Matrix_ = type { i64, i64, i64, i64 }
%struct.FT_FaceRec_ = type { i64, i64, i64, i64, i64, ptr, ptr, i32, ptr, i32, ptr, %struct.FT_Generic_, %struct.FT_BBox_, i16, i16, i16, i16, i16, i16, i16, i16, ptr, ptr, ptr, ptr, ptr, ptr, %struct.FT_ListRec_, %struct.FT_Generic_, ptr, ptr }
%struct.FT_BBox_ = type { i64, i64, i64, i64 }
%struct.FT_ListRec_ = type { ptr, ptr }
%struct.FT_Generic_ = type { ptr, ptr }
%struct.FT_GlyphSlotRec_ = type { ptr, ptr, ptr, i32, %struct.FT_Generic_, %struct.FT_Glyph_Metrics_, i64, i64, %struct.FT_Vector_, i32, %struct.FT_Bitmap_, i32, i32, %struct.FT_Outline_, i32, ptr, ptr, i64, i64, i64, ptr, ptr }
%struct.FT_Glyph_Metrics_ = type { i64, i64, i64, i64, i64, i64, i64, i64 }
%struct.FT_Vector_ = type { i64, i64 }
%struct.FT_Bitmap_ = type { i32, i32, i32, ptr, i16, i8, i8, ptr }
%struct.FT_Outline_ = type { i16, i16, ptr, ptr, ptr, i32 }

@sunFontIDs = external global %struct.FontManagerNativeIDs, align 8

; Function Attrs: nounwind uwtable
define internal ptr @getFTOutline(ptr noundef %0, ptr noundef %1, ptr noundef %2, ptr noundef %3, i32 noundef %4, float noundef %5, float noundef %6) #0 {
  %8 = alloca ptr, align 8
  %9 = alloca ptr, align 8
  %10 = alloca ptr, align 8
  %11 = alloca ptr, align 8
  %12 = alloca ptr, align 8
  %13 = alloca i32, align 4
  %14 = alloca float, align 4
  %15 = alloca float, align 4
  %16 = alloca i32, align 4
  %17 = alloca i32, align 4
  %18 = alloca ptr, align 8
  store ptr %0, ptr %9, align 8
  store ptr %1, ptr %10, align 8
  store ptr %2, ptr %11, align 8
  store ptr %3, ptr %12, align 8
  store i32 %4, ptr %13, align 4
  store float %5, ptr %14, align 4
  store float %6, ptr %15, align 4
  %19 = load i32, ptr %13, align 4
  %20 = icmp sge i32 %19, 65534
  br i1 %20, label %28, label %21

21:                                               ; preds = %7
  %22 = load ptr, ptr %11, align 8
  %23 = call i32 @isNullScalerContext(ptr noundef %22)
  %24 = icmp ne i32 %23, 0
  br i1 %24, label %28, label %25

25:                                               ; preds = %21
  %26 = load ptr, ptr %12, align 8
  %27 = icmp eq ptr %26, null
  br i1 %27, label %28, label %29

28:                                               ; preds = %25, %21, %7
  store ptr null, ptr %8, align 8
  br label %76

29:                                               ; preds = %25
  %30 = load ptr, ptr %9, align 8
  %31 = load ptr, ptr %10, align 8
  %32 = load ptr, ptr %12, align 8
  %33 = load ptr, ptr %11, align 8
  %34 = call i32 @setupFTContext(ptr noundef %30, ptr noundef %31, ptr noundef %32, ptr noundef %33)
  store i32 %34, ptr %17, align 4
  %35 = load i32, ptr %17, align 4
  %36 = icmp ne i32 %35, 0
  br i1 %36, label %37, label %38

37:                                               ; preds = %29
  store ptr null, ptr %8, align 8
  br label %76

38:                                               ; preds = %29
  store i32 10, ptr %16, align 4
  %39 = load ptr, ptr %12, align 8
  %40 = getelementptr inbounds %struct.FTScalerInfo, ptr %39, i32 0, i32 2
  %41 = load ptr, ptr %40, align 8
  %42 = load i32, ptr %13, align 4
  %43 = load i32, ptr %16, align 4
  %44 = call i32 @FT_Load_Glyph(ptr noundef %41, i32 noundef %42, i32 noundef %43)
  store i32 %44, ptr %17, align 4
  %45 = load i32, ptr %17, align 4
  %46 = icmp ne i32 %45, 0
  br i1 %46, label %47, label %48

47:                                               ; preds = %38
  store ptr null, ptr %8, align 8
  br label %76

48:                                               ; preds = %38
  %49 = load ptr, ptr %12, align 8
  %50 = getelementptr inbounds %struct.FTScalerInfo, ptr %49, i32 0, i32 2
  %51 = load ptr, ptr %50, align 8
  %52 = getelementptr inbounds %struct.FT_FaceRec_, ptr %51, i32 0, i32 21
  %53 = load ptr, ptr %52, align 8
  store ptr %53, ptr %18, align 8
  %54 = load ptr, ptr %11, align 8
  %55 = getelementptr inbounds %struct.FTScalerContext, ptr %54, i32 0, i32 4
  %56 = load i8, ptr %55, align 4
  %57 = icmp ne i8 %56, 0
  br i1 %57, label %58, label %62

58:                                               ; preds = %48
  %59 = load ptr, ptr %18, align 8
  %60 = load ptr, ptr %11, align 8
  %61 = getelementptr inbounds %struct.FTScalerContext, ptr %60, i32 0, i32 0
  call void @GlyphSlot_Embolden(ptr noundef %59, ptr noundef byval(%struct.FT_Matrix_) align 8 %61)
  br label %62

62:                                               ; preds = %58, %48
  %63 = load ptr, ptr %18, align 8
  %64 = getelementptr inbounds %struct.FT_GlyphSlotRec_, ptr %63, i32 0, i32 13
  %65 = load float, ptr %14, align 4
  %66 = fmul float %65, 6.400000e+01
  %67 = fptoui float %66 to i32
  %68 = zext i32 %67 to i64
  %69 = load float, ptr %15, align 4
  %70 = fneg float %69
  %71 = fmul float %70, 6.400000e+01
  %72 = fptoui float %71 to i32
  %73 = zext i32 %72 to i64
  call void @FT_Outline_Translate(ptr noundef %64, i64 noundef %68, i64 noundef %73)
  %74 = load ptr, ptr %18, align 8
  %75 = getelementptr inbounds %struct.FT_GlyphSlotRec_, ptr %74, i32 0, i32 13
  store ptr %75, ptr %8, align 8
  br label %76

76:                                               ; preds = %62, %47, %37, %28
  %77 = load ptr, ptr %8, align 8
  ret ptr %77
}

; Function Attrs: nounwind uwtable
define ptr @Java_sun_font_FreetypeFontScaler_getGlyphPointNative(ptr noundef %0, ptr noundef %1, ptr noundef %2, i64 noundef %3, i64 noundef %4, i32 noundef %5, i32 noundef %6) #0 {
  %8 = alloca ptr, align 8
  %9 = alloca ptr, align 8
  %10 = alloca ptr, align 8
  %11 = alloca i64, align 8
  %12 = alloca i64, align 8
  %13 = alloca i32, align 4
  %14 = alloca i32, align 4
  %15 = alloca ptr, align 8
  %16 = alloca ptr, align 8
  %17 = alloca float, align 4
  %18 = alloca float, align 4
  %19 = alloca ptr, align 8
  %20 = alloca ptr, align 8
  store ptr %0, ptr %8, align 8
  store ptr %1, ptr %9, align 8
  store ptr %2, ptr %10, align 8
  store i64 %3, ptr %11, align 8
  store i64 %4, ptr %12, align 8
  store i32 %5, ptr %13, align 4
  store i32 %6, ptr %14, align 4
  store ptr null, ptr %16, align 8
  store float 0.000000e+00, ptr %17, align 4
  store float 0.000000e+00, ptr %18, align 4
  %21 = load i64, ptr %11, align 8
  %22 = inttoptr i64 %21 to ptr
  store ptr %22, ptr %19, align 8
  %23 = load i64, ptr %12, align 8
  %24 = inttoptr i64 %23 to ptr
  store ptr %24, ptr %20, align 8
  %25 = load ptr, ptr %8, align 8
  %26 = load ptr, ptr %10, align 8
  %27 = load ptr, ptr %19, align 8
  %28 = load ptr, ptr %20, align 8
  %29 = load i32, ptr %13, align 4
  %30 = call ptr @getFTOutline(ptr noundef %25, ptr noundef %26, ptr noundef %27, ptr noundef %28, i32 noundef %29, float noundef 0.000000e+00, float noundef 0.000000e+00)
  store ptr %30, ptr %15, align 8
  %31 = load ptr, ptr %15, align 8
  %32 = icmp ne ptr %31, null
  br i1 %32, label %33, label %62

33:                                               ; preds = %7
  %34 = load ptr, ptr %15, align 8
  %35 = getelementptr inbounds %struct.FT_Outline_, ptr %34, i32 0, i32 1
  %36 = load i16, ptr %35, align 2
  %37 = sext i16 %36 to i32
  %38 = load i32, ptr %14, align 4
  %39 = icmp sgt i32 %37, %38
  br i1 %39, label %40, label %62

40:                                               ; preds = %33
  %41 = load ptr, ptr %15, align 8
  %42 = getelementptr inbounds %struct.FT_Outline_, ptr %41, i32 0, i32 2
  %43 = load ptr, ptr %42, align 8
  %44 = load i32, ptr %14, align 4
  %45 = sext i32 %44 to i64
  %46 = getelementptr inbounds %struct.FT_Vector_, ptr %43, i64 %45
  %47 = getelementptr inbounds %struct.FT_Vector_, ptr %46, i32 0, i32 0
  %48 = load i64, ptr %47, align 8
  %49 = sitofp i64 %48 to float
  %50 = fdiv float %49, 6.400000e+01
  store float %50, ptr %17, align 4
  %51 = load ptr, ptr %15, align 8
  %52 = getelementptr inbounds %struct.FT_Outline_, ptr %51, i32 0, i32 2
  %53 = load ptr, ptr %52, align 8
  %54 = load i32, ptr %14, align 4
  %55 = sext i32 %54 to i64
  %56 = getelementptr inbounds %struct.FT_Vector_, ptr %53, i64 %55
  %57 = getelementptr inbounds %struct.FT_Vector_, ptr %56, i32 0, i32 1
  %58 = load i64, ptr %57, align 8
  %59 = sitofp i64 %58 to float
  %60 = fdiv float %59, 6.400000e+01
  %61 = fneg float %60
  store float %61, ptr %18, align 4
  br label %62

62:                                               ; preds = %40, %33, %7
  %63 = load ptr, ptr %8, align 8
  %64 = load ptr, ptr %63, align 8
  %65 = getelementptr inbounds %struct.JNINativeInterface_, ptr %64, i32 0, i32 28
  %66 = load ptr, ptr %65, align 8
  %67 = load ptr, ptr %8, align 8
  %68 = load ptr, ptr getelementptr inbounds (%struct.FontManagerNativeIDs, ptr @sunFontIDs, i32 0, i32 17), align 8
  %69 = load ptr, ptr getelementptr inbounds (%struct.FontManagerNativeIDs, ptr @sunFontIDs, i32 0, i32 18), align 8
  %70 = load float, ptr %17, align 4
  %71 = fpext float %70 to double
  %72 = load float, ptr %18, align 4
  %73 = fpext float %72 to double
  %74 = call ptr (ptr, ptr, ptr, ...) %66(ptr noundef %67, ptr noundef %68, ptr noundef %69, double noundef %71, double noundef %73)
  ret ptr %74
}