; Function Attrs: nounwind uwtable
define ptr @Java_sun_font_FreetypeFontScaler_getGlyphPointNative(ptr noundef %0, ptr nocapture noundef readnone %1, ptr noundef %2, i64 noundef %3, i64 noundef %4, i32 noundef %5, i32 noundef %6) local_unnamed_addr #0 {
  %8 = inttoptr i64 %3 to ptr
  %9 = inttoptr i64 %4 to ptr
  %10 = icmp sgt i32 %5, 65533
  br i1 %10, label %getFTOutline.exit.thread, label %11

11:                                               ; preds = %7
  %12 = tail call i32 @isNullScalerContext(ptr noundef %8) #19
  %13 = icmp ne i32 %12, 0
  %14 = icmp eq i64 %4, 0
  %or.cond.i = or i1 %14, %13
  br i1 %or.cond.i, label %getFTOutline.exit.thread, label %15

15:                                               ; preds = %11
  %16 = tail call fastcc i32 @setupFTContext(ptr noundef %0, ptr noundef %2, ptr noundef nonnull %9, ptr noundef %8)
  %.not.i = icmp eq i32 %16, 0
  br i1 %.not.i, label %17, label %getFTOutline.exit.thread

17:                                               ; preds = %15
  %18 = getelementptr inbounds i8, ptr %9, i64 16
  %19 = load ptr, ptr %18, align 8
  %20 = tail call i32 @FT_Load_Glyph(ptr noundef %19, i32 noundef %5, i32 noundef 10) #19
  %.not23.i = icmp eq i32 %20, 0
  br i1 %.not23.i, label %21, label %getFTOutline.exit.thread

21:                                               ; preds = %17
  %22 = load ptr, ptr %18, align 8
  %23 = getelementptr inbounds i8, ptr %22, i64 152
  %24 = load ptr, ptr %23, align 8
  %25 = getelementptr inbounds i8, ptr %8, i64 44
  %26 = load i8, ptr %25, align 4
  %.not24.i = icmp eq i8 %26, 0
  br i1 %.not24.i, label %29, label %27

27:                                               ; preds = %21
  %.val.i = load i64, ptr %8, align 8
  %28 = getelementptr i8, ptr %8, i64 16
  %.val25.i = load i64, ptr %28, align 8
  tail call fastcc void @GlyphSlot_Embolden(ptr noundef %24, i64 %.val.i, i64 %.val25.i)
  br label %29

29:                                               ; preds = %27, %21
  %30 = getelementptr inbounds i8, ptr %24, i64 200
  tail call void @FT_Outline_Translate(ptr noundef nonnull %30, i64 noundef 0, i64 noundef 0) #19
  %31 = getelementptr inbounds i8, ptr %24, i64 202
  %32 = load i16, ptr %31, align 2
  %33 = sext i16 %32 to i32
  %34 = icmp sgt i32 %33, %6
  br i1 %34, label %35, label %getFTOutline.exit.thread

35:                                               ; preds = %29
  %36 = getelementptr inbounds i8, ptr %24, i64 208
  %37 = load ptr, ptr %36, align 8
  %38 = sext i32 %6 to i64
  %39 = getelementptr inbounds %struct.FT_Vector_, ptr %37, i64 %38
  %40 = load <2 x i64>, ptr %39, align 8
  %41 = sitofp <2 x i64> %40 to <2 x float>
  %42 = fmul <2 x float> %41, <float 1.562500e-02, float -1.562500e-02>
  %43 = fpext <2 x float> %42 to <2 x double>
  br label %getFTOutline.exit.thread

getFTOutline.exit.thread:                         ; preds = %17, %15, %7, %11, %35, %29
  %44 = phi <2 x double> [ %43, %35 ], [ zeroinitializer, %29 ], [ zeroinitializer, %11 ], [ zeroinitializer, %7 ], [ zeroinitializer, %15 ], [ zeroinitializer, %17 ]
  %45 = load ptr, ptr %0, align 8
  %46 = getelementptr inbounds i8, ptr %45, i64 224
  %47 = load ptr, ptr %46, align 8
  %48 = load ptr, ptr getelementptr inbounds (i8, ptr @sunFontIDs, i64 136), align 8
  %49 = load ptr, ptr getelementptr inbounds (i8, ptr @sunFontIDs, i64 144), align 8
  %50 = extractelement <2 x double> %44, i64 0
  %51 = extractelement <2 x double> %44, i64 1
  %52 = tail call ptr (ptr, ptr, ptr, ...) %47(ptr noundef nonnull %0, ptr noundef %48, ptr noundef %49, double noundef %50, double noundef %51) #19
  ret ptr %52
}